target datalayout = "e-m:e-p270:32:32-p271:32:32-p272:64:64-i64:64-i128:128-f80:128-n8:16:32:64-S128"
target triple = "x86_64-pc-linux-gnu"

%struct.TupleTableSlotOps = type { i64, ptr, ptr, ptr, ptr, ptr, ptr, ptr, ptr, ptr, ptr, ptr, ptr }
%struct.TupleHashTableData = type { ptr, i32, ptr, ptr, ptr, ptr, ptr, ptr, ptr, ptr, ptr, ptr, ptr }

@ParallelWorkerNumber = external global i32, align 4
@TTSOpsMinimalTuple = external constant %struct.TupleTableSlotOps, align 8
@CurrentMemoryContext = external global ptr, align 8

; Function Attrs: inlinehint nounwind uwtable
define internal i32 @murmurhash32(i32 noundef %0) #3 {
  %2 = alloca i32, align 4
  %3 = alloca i32, align 4
  store i32 %0, ptr %2, align 4
  call void @llvm.lifetime.start.p0(i64 4, ptr %3) #9
  %4 = load i32, ptr %2, align 4
  store i32 %4, ptr %3, align 4
  %5 = load i32, ptr %3, align 4
  %6 = lshr i32 %5, 16
  %7 = load i32, ptr %3, align 4
  %8 = xor i32 %7, %6
  store i32 %8, ptr %3, align 4
  %9 = load i32, ptr %3, align 4
  %10 = mul i32 %9, -2048144789
  store i32 %10, ptr %3, align 4
  %11 = load i32, ptr %3, align 4
  %12 = lshr i32 %11, 13
  %13 = load i32, ptr %3, align 4
  %14 = xor i32 %13, %12
  store i32 %14, ptr %3, align 4
  %15 = load i32, ptr %3, align 4
  %16 = mul i32 %15, -1028477387
  store i32 %16, ptr %3, align 4
  %17 = load i32, ptr %3, align 4
  %18 = lshr i32 %17, 16
  %19 = load i32, ptr %3, align 4
  %20 = xor i32 %19, %18
  store i32 %20, ptr %3, align 4
  %21 = load i32, ptr %3, align 4
  call void @llvm.lifetime.end.p0(i64 4, ptr %3) #9
  ret i32 %21
}

; Function Attrs: inlinehint nounwind uwtable
define internal ptr @MemoryContextSwitchTo(ptr noundef %0) #3 {
  %2 = alloca ptr, align 8
  %3 = alloca ptr, align 8
  store ptr %0, ptr %2, align 8
  call void @llvm.lifetime.start.p0(i64 8, ptr %3) #9
  %4 = load ptr, ptr @CurrentMemoryContext, align 8
  store ptr %4, ptr %3, align 8
  %5 = load ptr, ptr %2, align 8
  store ptr %5, ptr @CurrentMemoryContext, align 8
  %6 = load ptr, ptr %3, align 8
  call void @llvm.lifetime.end.p0(i64 8, ptr %3) #9
  ret ptr %6
}

; Function Attrs: nounwind uwtable
define dso_local ptr @BuildTupleHashTable(ptr noundef %0, ptr noundef %1, ptr noundef %2, i32 noundef %3, ptr noundef %4, ptr noundef %5, ptr noundef %6, ptr noundef %7, i64 noundef %8, i64 noundef %9, ptr noundef %10, ptr noundef %11, ptr noundef %12, i1 noundef zeroext %13) #0 {
  %15 = alloca ptr, align 8
  %16 = alloca ptr, align 8
  %17 = alloca ptr, align 8
  %18 = alloca i32, align 4
  %19 = alloca ptr, align 8
  %20 = alloca ptr, align 8
  %21 = alloca ptr, align 8
  %22 = alloca ptr, align 8
  %23 = alloca i64, align 8
  %24 = alloca i64, align 8
  %25 = alloca ptr, align 8
  %26 = alloca ptr, align 8
  %27 = alloca ptr, align 8
  %28 = alloca i8, align 1
  %29 = alloca ptr, align 8
  %30 = alloca i64, align 8
  %31 = alloca i64, align 8
  %32 = alloca ptr, align 8
  %33 = alloca i8, align 1
  %34 = alloca i32, align 4
  store ptr %0, ptr %15, align 8
  store ptr %1, ptr %16, align 8
  store ptr %2, ptr %17, align 8
  store i32 %3, ptr %18, align 4
  store ptr %4, ptr %19, align 8
  store ptr %5, ptr %20, align 8
  store ptr %6, ptr %21, align 8
  store ptr %7, ptr %22, align 8
  store i64 %8, ptr %23, align 8
  store i64 %9, ptr %24, align 8
  store ptr %10, ptr %25, align 8
  store ptr %11, ptr %26, align 8
  store ptr %12, ptr %27, align 8
  %35 = zext i1 %13 to i8
  store i8 %35, ptr %28, align 1
  call void @llvm.lifetime.start.p0(i64 8, ptr %29) #9
  call void @llvm.lifetime.start.p0(i64 8, ptr %30) #9
  %36 = load i64, ptr %24, align 8
  %37 = add i64 24, %36
  store i64 %37, ptr %30, align 8
  call void @llvm.lifetime.start.p0(i64 8, ptr %31) #9
  call void @llvm.lifetime.start.p0(i64 8, ptr %32) #9
  call void @llvm.lifetime.start.p0(i64 1, ptr %33) #9
  call void @llvm.lifetime.start.p0(i64 4, ptr %34) #9
  store i32 0, ptr %34, align 4
  %38 = call i64 @get_hash_memory_limit()
  %39 = load i64, ptr %30, align 8
  %40 = udiv i64 %38, %39
  store i64 %40, ptr %31, align 8
  %41 = load i64, ptr %23, align 8
  %42 = load i64, ptr %31, align 8
  %43 = icmp ugt i64 %41, %42
  br i1 %43, label %44, label %46

44:                                               ; preds = %14
  %45 = load i64, ptr %31, align 8
  store i64 %45, ptr %23, align 8
  br label %46

46:                                               ; preds = %44, %14
  %47 = load ptr, ptr %25, align 8
  %48 = call ptr @MemoryContextSwitchTo(ptr noundef %47)
  store ptr %48, ptr %32, align 8
  %49 = call ptr @palloc(i64 noundef 104)
  store ptr %49, ptr %29, align 8
  %50 = load i32, ptr %18, align 4
  %51 = load ptr, ptr %29, align 8
  %52 = getelementptr inbounds nuw %struct.TupleHashTableData, ptr %51, i32 0, i32 1
  store i32 %50, ptr %52, align 8
  %53 = load ptr, ptr %19, align 8
  %54 = load ptr, ptr %29, align 8
  %55 = getelementptr inbounds nuw %struct.TupleHashTableData, ptr %54, i32 0, i32 2
  store ptr %53, ptr %55, align 8
  %56 = load ptr, ptr %22, align 8
  %57 = load ptr, ptr %29, align 8
  %58 = getelementptr inbounds nuw %struct.TupleHashTableData, ptr %57, i32 0, i32 5
  store ptr %56, ptr %58, align 8
  %59 = load ptr, ptr %26, align 8
  %60 = load ptr, ptr %29, align 8
  %61 = getelementptr inbounds nuw %struct.TupleHashTableData, ptr %60, i32 0, i32 6
  store ptr %59, ptr %61, align 8
  %62 = load ptr, ptr %27, align 8
  %63 = load ptr, ptr %29, align 8
  %64 = getelementptr inbounds nuw %struct.TupleHashTableData, ptr %63, i32 0, i32 7
  store ptr %62, ptr %64, align 8
  %65 = load ptr, ptr %29, align 8
  %66 = getelementptr inbounds nuw %struct.TupleHashTableData, ptr %65, i32 0, i32 8
  store ptr null, ptr %66, align 8
  %67 = load ptr, ptr %29, align 8
  %68 = getelementptr inbounds nuw %struct.TupleHashTableData, ptr %67, i32 0, i32 9
  store ptr null, ptr %68, align 8
  %69 = load ptr, ptr %29, align 8
  %70 = getelementptr inbounds nuw %struct.TupleHashTableData, ptr %69, i32 0, i32 10
  store ptr null, ptr %70, align 8
  %71 = load ptr, ptr %29, align 8
  %72 = getelementptr inbounds nuw %struct.TupleHashTableData, ptr %71, i32 0, i32 11
  store ptr null, ptr %72, align 8
  %73 = load i8, ptr %28, align 1, !range !9, !noundef !10
  %74 = trunc i8 %73 to i1
  br i1 %74, label %75, label %78

75:                                               ; preds = %46
  %76 = load i32, ptr @ParallelWorkerNumber, align 4
  %77 = call i32 @murmurhash32(i32 noundef %76)
  store i32 %77, ptr %34, align 4
  br label %78

78:                                               ; preds = %75, %46
  %79 = load ptr, ptr %25, align 8
  %80 = load i64, ptr %23, align 8
  %81 = trunc i64 %80 to i32
  %82 = load ptr, ptr %29, align 8
  %83 = call ptr @tuplehash_create(ptr noundef %79, i32 noundef %81, ptr noundef %82)
  %84 = load ptr, ptr %29, align 8
  %85 = getelementptr inbounds nuw %struct.TupleHashTableData, ptr %84, i32 0, i32 0
  store ptr %83, ptr %85, align 8
  %86 = load ptr, ptr %16, align 8
  %87 = call ptr @CreateTupleDescCopy(ptr noundef %86)
  %88 = call ptr @MakeSingleTupleTableSlot(ptr noundef %87, ptr noundef @TTSOpsMinimalTuple)
  %89 = load ptr, ptr %29, align 8
  %90 = getelementptr inbounds nuw %struct.TupleHashTableData, ptr %89, i32 0, i32 8
  store ptr %88, ptr %90, align 8
  %91 = load ptr, ptr %25, align 8
  %92 = load ptr, ptr %26, align 8
  %93 = icmp ne ptr %91, %92
  %94 = zext i1 %93 to i8
  store i8 %94, ptr %33, align 1
  %95 = load ptr, ptr %16, align 8
  %96 = load ptr, ptr %17, align 8
  %97 = load ptr, ptr %21, align 8
  %98 = load ptr, ptr %22, align 8
  %99 = load i32, ptr %18, align 4
  %100 = load ptr, ptr %19, align 8
  %101 = load i8, ptr %33, align 1, !range !9, !noundef !10
  %102 = trunc i8 %101 to i1
  br i1 %102, label %103, label %105

103:                                              ; preds = %78
  %104 = load ptr, ptr %15, align 8
  br label %106

105:                                              ; preds = %78
  br label %106

106:                                              ; preds = %105, %103
  %107 = phi ptr [ %104, %103 ], [ null, %105 ]
  %108 = load i32, ptr %34, align 4
  %109 = call ptr @ExecBuildHash32FromAttrs(ptr noundef %95, ptr noundef %96, ptr noundef %97, ptr noundef %98, i32 noundef %99, ptr noundef %100, ptr noundef %107, i32 noundef %108)
  %110 = load ptr, ptr %29, align 8
  %111 = getelementptr inbounds nuw %struct.TupleHashTableData, ptr %110, i32 0, i32 3
  store ptr %109, ptr %111, align 8
  %112 = load ptr, ptr %16, align 8
  %113 = load ptr, ptr %16, align 8
  %114 = load ptr, ptr %17, align 8
  %115 = load i32, ptr %18, align 4
  %116 = load ptr, ptr %19, align 8
  %117 = load ptr, ptr %20, align 8
  %118 = load ptr, ptr %22, align 8
  %119 = load i8, ptr %33, align 1, !range !9, !noundef !10
  %120 = trunc i8 %119 to i1
  br i1 %120, label %121, label %123

121:                                              ; preds = %106
  %122 = load ptr, ptr %15, align 8
  br label %124

123:                                              ; preds = %106
  br label %124

124:                                              ; preds = %123, %121
  %125 = phi ptr [ %122, %121 ], [ null, %123 ]
  %126 = call ptr @ExecBuildGroupingEqual(ptr noundef %112, ptr noundef %113, ptr noundef %114, ptr noundef @TTSOpsMinimalTuple, i32 noundef %115, ptr noundef %116, ptr noundef %117, ptr noundef %118, ptr noundef %125)
  %127 = load ptr, ptr %29, align 8
  %128 = getelementptr inbounds nuw %struct.TupleHashTableData, ptr %127, i32 0, i32 4
  store ptr %126, ptr %128, align 8
  %129 = call ptr @CreateStandaloneExprContext()
  %130 = load ptr, ptr %29, align 8
  %131 = getelementptr inbounds nuw %struct.TupleHashTableData, ptr %130, i32 0, i32 12
  store ptr %129, ptr %131, align 8
  %132 = load ptr, ptr %32, align 8
  %133 = call ptr @MemoryContextSwitchTo(ptr noundef %132)
  %134 = load ptr, ptr %29, align 8
  call void @llvm.lifetime.end.p0(i64 4, ptr %34) #9
  call void @llvm.lifetime.end.p0(i64 1, ptr %33) #9
  call void @llvm.lifetime.end.p0(i64 8, ptr %32) #9
  call void @llvm.lifetime.end.p0(i64 8, ptr %31) #9
  call void @llvm.lifetime.end.p0(i64 8, ptr %30) #9
  call void @llvm.lifetime.end.p0(i64 8, ptr %29) #9
  ret ptr %134
}