; Function Attrs: nounwind uwtable
define dso_local ptr @BuildTupleHashTable(ptr noundef %0, ptr noundef %1, ptr noundef %2, i32 noundef %3, ptr noundef %4, ptr noundef %5, ptr noundef %6, ptr noundef %7, i64 noundef %8, i64 noundef %9, ptr noundef %10, ptr noundef %11, ptr noundef %12, i1 noundef zeroext %13) local_unnamed_addr #0 {
  %15 = tail call i64 @get_hash_memory_limit() #15
  %16 = load ptr, ptr @CurrentMemoryContext, align 8
  store ptr %10, ptr @CurrentMemoryContext, align 8
  %17 = tail call ptr @palloc(i64 noundef 104) #15
  %18 = getelementptr inbounds nuw i8, ptr %17, i64 8
  store i32 %3, ptr %18, align 8
  %19 = getelementptr inbounds nuw i8, ptr %17, i64 16
  store ptr %4, ptr %19, align 8
  %20 = getelementptr inbounds nuw i8, ptr %17, i64 40
  store ptr %7, ptr %20, align 8
  %21 = getelementptr inbounds nuw i8, ptr %17, i64 48
  store ptr %11, ptr %21, align 8
  %22 = getelementptr inbounds nuw i8, ptr %17, i64 56
  store ptr %12, ptr %22, align 8
  %23 = getelementptr inbounds nuw i8, ptr %17, i64 64
  tail call void @llvm.memset.p0.i64(ptr noundef nonnull align 8 dereferenceable(32) %23, i8 0, i64 32, i1 false)
  br i1 %13, label %24, label %34

24:                                               ; preds = %14
  %25 = load i32, ptr @ParallelWorkerNumber, align 4
  %26 = lshr i32 %25, 16
  %27 = xor i32 %26, %25
  %28 = mul i32 %27, -2048144789
  %29 = lshr i32 %28, 13
  %30 = xor i32 %29, %28
  %31 = mul i32 %30, -1028477387
  %32 = lshr i32 %31, 16
  %33 = xor i32 %32, %31
  br label %34

34:                                               ; preds = %24, %14
  %.0 = phi i32 [ %33, %24 ], [ 0, %14 ]
  %35 = add i64 %9, 24
  %36 = udiv i64 %15, %35
  %spec.select = tail call i64 @llvm.umin.i64(i64 %8, i64 %36)
  %37 = trunc i64 %spec.select to i32
  %38 = tail call ptr @tuplehash_create(ptr noundef %10, i32 noundef %37, ptr noundef nonnull %17)
  store ptr %38, ptr %17, align 8
  %39 = tail call ptr @CreateTupleDescCopy(ptr noundef %1) #15
  %40 = tail call ptr @MakeSingleTupleTableSlot(ptr noundef %39, ptr noundef nonnull @TTSOpsMinimalTuple) #15
  store ptr %40, ptr %23, align 8
  %.not = icmp eq ptr %10, %11
  %41 = select i1 %.not, ptr null, ptr %0
  %42 = tail call ptr @ExecBuildHash32FromAttrs(ptr noundef %1, ptr noundef %2, ptr noundef %6, ptr noundef %7, i32 noundef %3, ptr noundef %4, ptr noundef %41, i32 noundef %.0) #15
  %43 = getelementptr inbounds nuw i8, ptr %17, i64 24
  store ptr %42, ptr %43, align 8
  %44 = tail call ptr @ExecBuildGroupingEqual(ptr noundef %1, ptr noundef %1, ptr noundef %2, ptr noundef nonnull @TTSOpsMinimalTuple, i32 noundef %3, ptr noundef %4, ptr noundef %5, ptr noundef %7, ptr noundef %41) #15
  %45 = getelementptr inbounds nuw i8, ptr %17, i64 32
  store ptr %44, ptr %45, align 8
  %46 = tail call ptr @CreateStandaloneExprContext() #15
  %47 = getelementptr inbounds nuw i8, ptr %17, i64 96
  store ptr %46, ptr %47, align 8
  store ptr %16, ptr @CurrentMemoryContext, align 8
  ret ptr %17
}